target datalayout = "e-m:e-p270:32:32-p271:32:32-p272:64:64-i64:64-i128:128-f80:128-n8:16:32:64-S128"
target triple = "x86_64-pc-linux-gnu"

%"class.casadi::Sparsity" = type { %"class.casadi::SharedObject" }
%"class.casadi::SharedObject" = type { ptr }
%"class.casadi::MXNode" = type { %"class.casadi::SharedObjectInternal", i64, %"class.std::vector", %"class.casadi::Sparsity" }
%"class.casadi::SharedObjectInternal" = type { ptr, i64, ptr }
%"class.std::vector" = type { %"struct.std::_Vector_base" }
%"struct.std::_Vector_base" = type { %"struct.std::_Vector_base<casadi::MX, std::allocator<casadi::MX>>::_Vector_impl" }
%"struct.std::_Vector_base<casadi::MX, std::allocator<casadi::MX>>::_Vector_impl" = type { %"struct.std::_Vector_base<casadi::MX, std::allocator<casadi::MX>>::_Vector_impl_data" }
%"struct.std::_Vector_base<casadi::MX, std::allocator<casadi::MX>>::_Vector_impl_data" = type { ptr, ptr, ptr }
%"class.casadi::MX" = type { %"class.casadi::SharedObject" }

@.str.10 = private unnamed_addr constant [74 x i8] c"vector::_M_range_check: __n (which is %zu) >= this->size() (which is %zu)\00", align 1

; Function Attrs: mustprogress nounwind uwtable
define linkonce_odr hidden noundef i64 @_ZNKSt6vectorIN6casadi2MXESaIS1_EE4sizeEv(ptr noundef nonnull align 8 dereferenceable(24) %0) #5 comdat align 2 {
  %2 = alloca ptr, align 8
  store ptr %0, ptr %2, align 8
  %3 = load ptr, ptr %2, align 8
  %4 = getelementptr inbounds %"struct.std::_Vector_base", ptr %3, i32 0, i32 0
  %5 = getelementptr inbounds %"struct.std::_Vector_base<casadi::MX, std::allocator<casadi::MX>>::_Vector_impl_data", ptr %4, i32 0, i32 1
  %6 = load ptr, ptr %5, align 8
  %7 = getelementptr inbounds %"struct.std::_Vector_base", ptr %3, i32 0, i32 0
  %8 = getelementptr inbounds %"struct.std::_Vector_base<casadi::MX, std::allocator<casadi::MX>>::_Vector_impl_data", ptr %7, i32 0, i32 0
  %9 = load ptr, ptr %8, align 8
  %10 = ptrtoint ptr %6 to i64
  %11 = ptrtoint ptr %9 to i64
  %12 = sub i64 %10, %11
  %13 = sdiv exact i64 %12, 8
  ret i64 %13
}

; Function Attrs: mustprogress nounwind uwtable
define linkonce_odr hidden noundef nonnull align 8 dereferenceable(8) ptr @_ZNKSt6vectorIN6casadi2MXESaIS1_EEixEm(ptr noundef nonnull align 8 dereferenceable(24) %0, i64 noundef %1) #5 comdat align 2 {
  %3 = alloca ptr, align 8
  %4 = alloca i64, align 8
  store ptr %0, ptr %3, align 8
  store i64 %1, ptr %4, align 8
  %5 = load ptr, ptr %3, align 8
  %6 = getelementptr inbounds %"struct.std::_Vector_base", ptr %5, i32 0, i32 0
  %7 = getelementptr inbounds %"struct.std::_Vector_base<casadi::MX, std::allocator<casadi::MX>>::_Vector_impl_data", ptr %6, i32 0, i32 0
  %8 = load ptr, ptr %7, align 8
  %9 = load i64, ptr %4, align 8
  %10 = getelementptr inbounds %"class.casadi::MX", ptr %8, i64 %9
  ret ptr %10
}

; Function Attrs: mustprogress uwtable
define linkonce_odr hidden void @_ZNKSt6vectorIN6casadi2MXESaIS1_EE14_M_range_checkEm(ptr noundef nonnull align 8 dereferenceable(24) %0, i64 noundef %1) #4 comdat align 2 {
  %3 = alloca ptr, align 8
  %4 = alloca i64, align 8
  store ptr %0, ptr %3, align 8
  store i64 %1, ptr %4, align 8
  %5 = load ptr, ptr %3, align 8
  %6 = load i64, ptr %4, align 8
  %7 = call noundef i64 @_ZNKSt6vectorIN6casadi2MXESaIS1_EE4sizeEv(ptr noundef nonnull align 8 dereferenceable(24) %5) #3
  %8 = icmp uge i64 %6, %7
  br i1 %8, label %9, label %12

9:                                                ; preds = %2
  %10 = load i64, ptr %4, align 8
  %11 = call noundef i64 @_ZNKSt6vectorIN6casadi2MXESaIS1_EE4sizeEv(ptr noundef nonnull align 8 dereferenceable(24) %5) #3
  call void (ptr, ...) @_ZSt24__throw_out_of_range_fmtPKcz(ptr noundef @.str.10, i64 noundef %10, i64 noundef %11) #12
  unreachable

12:                                               ; preds = %2
  ret void
}

; Function Attrs: mustprogress nounwind uwtable
define linkonce_odr hidden void @_ZN6casadi12casadi_clearIdEEvPT_x(ptr noundef %0, i64 noundef %1) #5 comdat {
  %3 = alloca ptr, align 8
  %4 = alloca i64, align 8
  %5 = alloca i64, align 8
  store ptr %0, ptr %3, align 8
  store i64 %1, ptr %4, align 8
  %6 = load ptr, ptr %3, align 8
  %7 = icmp ne ptr %6, null
  br i1 %7, label %8, label %20

8:                                                ; preds = %2
  store i64 0, ptr %5, align 8
  br label %9

9:                                                ; preds = %16, %8
  %10 = load i64, ptr %5, align 8
  %11 = load i64, ptr %4, align 8
  %12 = icmp slt i64 %10, %11
  br i1 %12, label %13, label %19

13:                                               ; preds = %9
  %14 = load ptr, ptr %3, align 8
  %15 = getelementptr inbounds double, ptr %14, i32 1
  store ptr %15, ptr %3, align 8
  store double 0.000000e+00, ptr %14, align 8
  br label %16

16:                                               ; preds = %13
  %17 = load i64, ptr %5, align 8
  %18 = add nsw i64 %17, 1
  store i64 %18, ptr %5, align 8
  br label %9, !llvm.loop !33

19:                                               ; preds = %9
  br label %20

20:                                               ; preds = %19, %2
  ret void
}

; Function Attrs: mustprogress uwtable
define linkonce_odr hidden noundef nonnull align 8 dereferenceable(8) ptr @_ZNKSt6vectorIN6casadi2MXESaIS1_EE2atEm(ptr noundef nonnull align 8 dereferenceable(24) %0, i64 noundef %1) #4 comdat align 2 {
  %3 = alloca ptr, align 8
  %4 = alloca i64, align 8
  store ptr %0, ptr %3, align 8
  store i64 %1, ptr %4, align 8
  %5 = load ptr, ptr %3, align 8
  %6 = load i64, ptr %4, align 8
  call void @_ZNKSt6vectorIN6casadi2MXESaIS1_EE14_M_range_checkEm(ptr noundef nonnull align 8 dereferenceable(24) %5, i64 noundef %6)
  %7 = load i64, ptr %4, align 8
  %8 = call noundef nonnull align 8 dereferenceable(8) ptr @_ZNKSt6vectorIN6casadi2MXESaIS1_EEixEm(ptr noundef nonnull align 8 dereferenceable(24) %5, i64 noundef %7) #3
  ret ptr %8
}

; Function Attrs: mustprogress uwtable
define linkonce_odr hidden void @_ZN6casadi14casadi_densifyIddEEvPKT_PKxPT0_x(ptr noundef %0, ptr noundef %1, ptr noundef %2, i64 noundef %3) #4 comdat {
  %5 = alloca ptr, align 8
  %6 = alloca ptr, align 8
  %7 = alloca ptr, align 8
  %8 = alloca i64, align 8
  %9 = alloca i64, align 8
  %10 = alloca i64, align 8
  %11 = alloca i64, align 8
  %12 = alloca i64, align 8
  %13 = alloca ptr, align 8
  %14 = alloca ptr, align 8
  store ptr %0, ptr %5, align 8
  store ptr %1, ptr %6, align 8
  store ptr %2, ptr %7, align 8
  store i64 %3, ptr %8, align 8
  %15 = load ptr, ptr %7, align 8
  %16 = icmp ne ptr %15, null
  br i1 %16, label %18, label %17

17:                                               ; preds = %4
  br label %120

18:                                               ; preds = %4
  %19 = load ptr, ptr %6, align 8
  %20 = getelementptr inbounds i64, ptr %19, i64 0
  %21 = load i64, ptr %20, align 8
  store i64 %21, ptr %9, align 8
  %22 = load ptr, ptr %6, align 8
  %23 = getelementptr inbounds i64, ptr %22, i64 1
  %24 = load i64, ptr %23, align 8
  store i64 %24, ptr %10, align 8
  %25 = load ptr, ptr %6, align 8
  %26 = getelementptr inbounds i64, ptr %25, i64 2
  store ptr %26, ptr %13, align 8
  %27 = load ptr, ptr %6, align 8
  %28 = load i64, ptr %10, align 8
  %29 = getelementptr inbounds i64, ptr %27, i64 %28
  %30 = getelementptr inbounds i64, ptr %29, i64 3
  store ptr %30, ptr %14, align 8
  %31 = load ptr, ptr %7, align 8
  %32 = load i64, ptr %9, align 8
  %33 = load i64, ptr %10, align 8
  %34 = mul nsw i64 %32, %33
  call void @_ZN6casadi12casadi_clearIdEEvPT_x(ptr noundef %31, i64 noundef %34)
  %35 = load ptr, ptr %5, align 8
  %36 = icmp ne ptr %35, null
  br i1 %36, label %38, label %37

37:                                               ; preds = %18
  br label %120

38:                                               ; preds = %18
  %39 = load i64, ptr %8, align 8
  %40 = icmp ne i64 %39, 0
  br i1 %40, label %41, label %81

41:                                               ; preds = %38
  store i64 0, ptr %11, align 8
  br label %42

42:                                               ; preds = %77, %41
  %43 = load i64, ptr %11, align 8
  %44 = load i64, ptr %10, align 8
  %45 = icmp slt i64 %43, %44
  br i1 %45, label %46, label %80

46:                                               ; preds = %42
  %47 = load ptr, ptr %13, align 8
  %48 = load i64, ptr %11, align 8
  %49 = getelementptr inbounds i64, ptr %47, i64 %48
  %50 = load i64, ptr %49, align 8
  store i64 %50, ptr %12, align 8
  br label %51

51:                                               ; preds = %73, %46
  %52 = load i64, ptr %12, align 8
  %53 = load ptr, ptr %13, align 8
  %54 = load i64, ptr %11, align 8
  %55 = add nsw i64 %54, 1
  %56 = getelementptr inbounds i64, ptr %53, i64 %55
  %57 = load i64, ptr %56, align 8
  %58 = icmp ne i64 %52, %57
  br i1 %58, label %59, label %76

59:                                               ; preds = %51
  %60 = load ptr, ptr %5, align 8
  %61 = getelementptr inbounds double, ptr %60, i32 1
  store ptr %61, ptr %5, align 8
  %62 = load double, ptr %60, align 8
  %63 = load ptr, ptr %7, align 8
  %64 = load i64, ptr %11, align 8
  %65 = load ptr, ptr %14, align 8
  %66 = load i64, ptr %12, align 8
  %67 = getelementptr inbounds i64, ptr %65, i64 %66
  %68 = load i64, ptr %67, align 8
  %69 = load i64, ptr %10, align 8
  %70 = mul nsw i64 %68, %69
  %71 = add nsw i64 %64, %70
  %72 = getelementptr inbounds double, ptr %63, i64 %71
  store double %62, ptr %72, align 8
  br label %73

73:                                               ; preds = %59
  %74 = load i64, ptr %12, align 8
  %75 = add nsw i64 %74, 1
  store i64 %75, ptr %12, align 8
  br label %51, !llvm.loop !29

76:                                               ; preds = %51
  br label %77

77:                                               ; preds = %76
  %78 = load i64, ptr %11, align 8
  %79 = add nsw i64 %78, 1
  store i64 %79, ptr %11, align 8
  br label %42, !llvm.loop !30

80:                                               ; preds = %42
  br label %120

81:                                               ; preds = %38
  store i64 0, ptr %11, align 8
  br label %82

82:                                               ; preds = %116, %81
  %83 = load i64, ptr %11, align 8
  %84 = load i64, ptr %10, align 8
  %85 = icmp slt i64 %83, %84
  br i1 %85, label %86, label %119

86:                                               ; preds = %82
  %87 = load ptr, ptr %13, align 8
  %88 = load i64, ptr %11, align 8
  %89 = getelementptr inbounds i64, ptr %87, i64 %88
  %90 = load i64, ptr %89, align 8
  store i64 %90, ptr %12, align 8
  br label %91

91:                                               ; preds = %109, %86
  %92 = load i64, ptr %12, align 8
  %93 = load ptr, ptr %13, align 8
  %94 = load i64, ptr %11, align 8
  %95 = add nsw i64 %94, 1
  %96 = getelementptr inbounds i64, ptr %93, i64 %95
  %97 = load i64, ptr %96, align 8
  %98 = icmp ne i64 %92, %97
  br i1 %98, label %99, label %112

99:                                               ; preds = %91
  %100 = load ptr, ptr %5, align 8
  %101 = getelementptr inbounds double, ptr %100, i32 1
  store ptr %101, ptr %5, align 8
  %102 = load double, ptr %100, align 8
  %103 = load ptr, ptr %7, align 8
  %104 = load ptr, ptr %14, align 8
  %105 = load i64, ptr %12, align 8
  %106 = getelementptr inbounds i64, ptr %104, i64 %105
  %107 = load i64, ptr %106, align 8
  %108 = getelementptr inbounds double, ptr %103, i64 %107
  store double %102, ptr %108, align 8
  br label %109

109:                                              ; preds = %99
  %110 = load i64, ptr %12, align 8
  %111 = add nsw i64 %110, 1
  store i64 %111, ptr %12, align 8
  br label %91, !llvm.loop !31

112:                                              ; preds = %91
  %113 = load i64, ptr %9, align 8
  %114 = load ptr, ptr %7, align 8
  %115 = getelementptr inbounds double, ptr %114, i64 %113
  store ptr %115, ptr %7, align 8
  br label %116

116:                                              ; preds = %112
  %117 = load i64, ptr %11, align 8
  %118 = add nsw i64 %117, 1
  store i64 %118, ptr %11, align 8
  br label %82, !llvm.loop !32

119:                                              ; preds = %82
  br label %120

120:                                              ; preds = %119, %80, %37, %17
  ret void
}

; Function Attrs: mustprogress uwtable
define linkonce_odr hidden noundef nonnull align 8 dereferenceable(8) ptr @_ZNK6casadi6MXNode3depEx(ptr noundef nonnull align 8 dereferenceable(64) %0, i64 noundef %1) #4 comdat align 2 {
  %3 = alloca ptr, align 8
  %4 = alloca i64, align 8
  store ptr %0, ptr %3, align 8
  store i64 %1, ptr %4, align 8
  %5 = load ptr, ptr %3, align 8
  %6 = getelementptr inbounds %"class.casadi::MXNode", ptr %5, i32 0, i32 2
  %7 = load i64, ptr %4, align 8
  %8 = call noundef nonnull align 8 dereferenceable(8) ptr @_ZNKSt6vectorIN6casadi2MXESaIS1_EE2atEm(ptr noundef nonnull align 8 dereferenceable(24) %6, i64 noundef %7)
  ret ptr %8
}

; Function Attrs: mustprogress uwtable
define linkonce_odr noundef i32 @_ZNK6casadi7Densify8eval_genIdEEiPPKT_PPS2_PxS6_(ptr noundef nonnull align 8 dereferenceable(64) %0, ptr noundef %1, ptr noundef %2, ptr noundef %3, ptr noundef %4) #4 comdat align 2 {
  %6 = alloca ptr, align 8
  %7 = alloca ptr, align 8
  %8 = alloca ptr, align 8
  %9 = alloca ptr, align 8
  %10 = alloca ptr, align 8
  store ptr %0, ptr %6, align 8
  store ptr %1, ptr %7, align 8
  store ptr %2, ptr %8, align 8
  store ptr %3, ptr %9, align 8
  store ptr %4, ptr %10, align 8
  %11 = load ptr, ptr %6, align 8
  %12 = load ptr, ptr %7, align 8
  %13 = getelementptr inbounds ptr, ptr %12, i64 0
  %14 = load ptr, ptr %13, align 8
  %15 = call noundef nonnull align 8 dereferenceable(8) ptr @_ZNK6casadi6MXNode3depEx(ptr noundef nonnull align 8 dereferenceable(64) %11, i64 noundef 0)
  %16 = call noundef nonnull align 8 dereferenceable(8) ptr @_ZNK6casadi2MX8sparsityEv(ptr noundef nonnull align 8 dereferenceable(8) %15)
  %17 = call noundef ptr @_ZNK6casadi8SparsitycvPKxEv(ptr noundef nonnull align 8 dereferenceable(8) %16)
  %18 = load ptr, ptr %8, align 8
  %19 = getelementptr inbounds ptr, ptr %18, i64 0
  %20 = load ptr, ptr %19, align 8
  call void @_ZN6casadi14casadi_densifyIddEEvPKT_PKxPT0_x(ptr noundef %14, ptr noundef %17, ptr noundef %20, i64 noundef 0)
  ret i32 0
}

; Function Attrs: mustprogress uwtable
define noundef i32 @_ZNK6casadi7Densify4evalEPPKdPPdPxS4_(ptr noundef nonnull align 8 dereferenceable(64) %0, ptr noundef %1, ptr noundef %2, ptr noundef %3, ptr noundef %4) unnamed_addr #4 align 2 {
  %6 = alloca ptr, align 8
  %7 = alloca ptr, align 8
  %8 = alloca ptr, align 8
  %9 = alloca ptr, align 8
  %10 = alloca ptr, align 8
  store ptr %0, ptr %6, align 8
  store ptr %1, ptr %7, align 8
  store ptr %2, ptr %8, align 8
  store ptr %3, ptr %9, align 8
  store ptr %4, ptr %10, align 8
  %11 = load ptr, ptr %6, align 8
  %12 = load ptr, ptr %7, align 8
  %13 = load ptr, ptr %8, align 8
  %14 = load ptr, ptr %9, align 8
  %15 = load ptr, ptr %10, align 8
  %16 = call noundef i32 @_ZNK6casadi7Densify8eval_genIdEEiPPKT_PPS2_PxS6_(ptr noundef nonnull align 8 dereferenceable(64) %11, ptr noundef %12, ptr noundef %13, ptr noundef %14, ptr noundef %15)
  ret i32 %16
}