; Function Attrs: mustprogress uwtable
define noundef i32 @_ZNK6casadi7Densify4evalEPPKdPPdPxS4_(ptr nocapture noundef nonnull readonly align 8 dereferenceable(64) %0, ptr nocapture noundef readonly %1, ptr nocapture noundef readonly %2, ptr nocapture readnone %3, ptr nocapture readnone %4) unnamed_addr #3 align 2 {
  %6 = load ptr, ptr %1, align 8
  %7 = getelementptr inbounds i8, ptr %0, i64 32
  %8 = getelementptr inbounds i8, ptr %0, i64 40
  %9 = load ptr, ptr %8, align 8
  %10 = load ptr, ptr %7, align 8
  %.not.i.i.i.not.i = icmp eq ptr %9, %10
  br i1 %.not.i.i.i.not.i, label %11, label %_ZNK6casadi6MXNode3depEx.exit.i

11:                                               ; preds = %5
  tail call void (ptr, ...) @_ZSt24__throw_out_of_range_fmtPKcz(ptr noundef nonnull @.str.10, i64 noundef 0, i64 noundef 0) #17
  unreachable

_ZNK6casadi6MXNode3depEx.exit.i:                  ; preds = %5
  %12 = tail call noundef nonnull align 8 dereferenceable(8) ptr @_ZNK6casadi2MX8sparsityEv(ptr noundef nonnull align 8 dereferenceable(8) %10)
  %13 = tail call noundef ptr @_ZNK6casadi8SparsitycvPKxEv(ptr noundef nonnull align 8 dereferenceable(8) %12)
  %14 = load ptr, ptr %2, align 8
  %.not.i.i = icmp eq ptr %14, null
  br i1 %.not.i.i, label %_ZNK6casadi7Densify8eval_genIdEEiPPKT_PPS2_PxS6_.exit, label %15

15:                                               ; preds = %_ZNK6casadi6MXNode3depEx.exit.i
  %16 = load i64, ptr %13, align 8
  %17 = getelementptr inbounds i8, ptr %13, i64 8
  %18 = load i64, ptr %17, align 8
  %19 = getelementptr inbounds i8, ptr %13, i64 16
  %20 = getelementptr inbounds i64, ptr %13, i64 %18
  %21 = getelementptr inbounds i8, ptr %20, i64 24
  %22 = mul nsw i64 %18, %16
  %23 = icmp sgt i64 %22, 0
  br i1 %23, label %.lr.ph.preheader.i.i.i, label %_ZN6casadi12casadi_clearIdEEvPT_x.exit.i.i

.lr.ph.preheader.i.i.i:                           ; preds = %15
  %24 = shl nuw i64 %22, 3
  tail call void @llvm.memset.p0.i64(ptr nonnull align 8 %14, i8 0, i64 %24, i1 false)
  br label %_ZN6casadi12casadi_clearIdEEvPT_x.exit.i.i

_ZN6casadi12casadi_clearIdEEvPT_x.exit.i.i:       ; preds = %.lr.ph.preheader.i.i.i, %15
  %.not48.i.i = icmp ne ptr %6, null
  %25 = icmp sgt i64 %18, 0
  %or.cond.i = and i1 %.not48.i.i, %25
  br i1 %or.cond.i, label %.lr.ph72.preheader.i.i, label %_ZNK6casadi7Densify8eval_genIdEEiPPKT_PPS2_PxS6_.exit

.lr.ph72.preheader.i.i:                           ; preds = %_ZN6casadi12casadi_clearIdEEvPT_x.exit.i.i
  %.pre76.i.i = load i64, ptr %19, align 8
  br label %.lr.ph72.i.i

.lr.ph72.i.i:                                     ; preds = %._crit_edge.i.i, %.lr.ph72.preheader.i.i
  %26 = phi i64 [ %37, %._crit_edge.i.i ], [ %.pre76.i.i, %.lr.ph72.preheader.i.i ]
  %.271.i.i = phi ptr [ %.3.lcssa.i.i, %._crit_edge.i.i ], [ %6, %.lr.ph72.preheader.i.i ]
  %.04070.i.i = phi ptr [ %38, %._crit_edge.i.i ], [ %14, %.lr.ph72.preheader.i.i ]
  %.14469.i.i = phi i64 [ %27, %._crit_edge.i.i ], [ 0, %.lr.ph72.preheader.i.i ]
  %27 = add nuw nsw i64 %.14469.i.i, 1
  %28 = getelementptr inbounds i64, ptr %19, i64 %27
  %29 = load i64, ptr %28, align 8
  %.not5063.i.i = icmp eq i64 %26, %29
  br i1 %.not5063.i.i, label %._crit_edge.i.i, label %.lr.ph66.i.i

.lr.ph66.i.i:                                     ; preds = %.lr.ph72.i.i, %.lr.ph66.i.i
  %.365.i.i = phi ptr [ %30, %.lr.ph66.i.i ], [ %.271.i.i, %.lr.ph72.i.i ]
  %.14264.i.i = phi i64 [ %35, %.lr.ph66.i.i ], [ %26, %.lr.ph72.i.i ]
  %30 = getelementptr inbounds i8, ptr %.365.i.i, i64 8
  %31 = load double, ptr %.365.i.i, align 8
  %32 = getelementptr inbounds i64, ptr %21, i64 %.14264.i.i
  %33 = load i64, ptr %32, align 8
  %34 = getelementptr inbounds double, ptr %.04070.i.i, i64 %33
  store double %31, ptr %34, align 8
  %35 = add nsw i64 %.14264.i.i, 1
  %36 = load i64, ptr %28, align 8
  %.not50.i.i = icmp eq i64 %35, %36
  br i1 %.not50.i.i, label %._crit_edge.i.i, label %.lr.ph66.i.i, !llvm.loop !39

._crit_edge.i.i:                                  ; preds = %.lr.ph66.i.i, %.lr.ph72.i.i
  %37 = phi i64 [ %26, %.lr.ph72.i.i ], [ %35, %.lr.ph66.i.i ]
  %.3.lcssa.i.i = phi ptr [ %.271.i.i, %.lr.ph72.i.i ], [ %30, %.lr.ph66.i.i ]
  %38 = getelementptr inbounds double, ptr %.04070.i.i, i64 %16
  %exitcond75.not.i.i = icmp eq i64 %27, %18
  br i1 %exitcond75.not.i.i, label %_ZNK6casadi7Densify8eval_genIdEEiPPKT_PPS2_PxS6_.exit, label %.lr.ph72.i.i, !llvm.loop !40

_ZNK6casadi7Densify8eval_genIdEEiPPKT_PPS2_PxS6_.exit: ; preds = %._crit_edge.i.i, %_ZNK6casadi6MXNode3depEx.exit.i, %_ZN6casadi12casadi_clearIdEEvPT_x.exit.i.i
  ret i32 0
}